target datalayout = "e-m:e-p270:32:32-p271:32:32-p272:64:64-i64:64-i128:128-f80:128-n8:16:32:64-S128"
target triple = "x86_64-pc-linux-gnu"

%struct.slurm_conf_t = type { i64, ptr, i16, ptr, ptr, ptr, ptr, ptr, i16, ptr, ptr, ptr, ptr, ptr, ptr, ptr, i16, ptr, ptr, ptr, ptr, i16, ptr, ptr, ptr, i64, ptr, ptr, ptr, ptr, i16, ptr, ptr, i16, i32, ptr, i32, ptr, i32, i32, ptr, ptr, i64, i64, ptr, i16, i16, ptr, i32, i32, ptr, i32, ptr, i32, i16, i16, i16, ptr, i16, i16, ptr, ptr, i32, i16, i16, ptr, i32, i16, ptr, ptr, ptr, ptr, i16, ptr, ptr, ptr, ptr, i32, ptr, ptr, ptr, ptr, i16, i16, ptr, i32, i32, i32, i16, i16, ptr, ptr, i16, ptr, ptr, i32, i32, i32, i32, i32, i64, i32, i32, i16, ptr, ptr, i32, ptr, ptr, ptr, i16, i32, ptr, ptr, i16, ptr, ptr, i32, i16, ptr, ptr, ptr, ptr, i32, i32, i16, i16, i32, ptr, i16, ptr, i32, i32, i32, i32, i32, i32, ptr, i16, ptr, ptr, i32, i16, ptr, i32, i16, i16, ptr, ptr, ptr, i16, ptr, ptr, ptr, ptr, i16, i16, ptr, i16, ptr, i16, ptr, i16, ptr, i16, ptr, ptr, ptr, ptr, i16, ptr, ptr, ptr, i32, ptr, i32, ptr, ptr, i16, ptr, ptr, i32, i16, ptr, ptr, i16, i16, ptr, i16, ptr, ptr, ptr, i32, ptr, i16, i16, ptr, ptr, ptr, ptr, ptr, ptr, ptr, ptr, i16, i32, i16, ptr, ptr, ptr, ptr, i32, ptr, ptr, ptr, i16, ptr, ptr, ptr, i16, ptr, i16, ptr, i16, i16, ptr }
%struct.getnameinfo_cache_t = type { %struct.sockaddr_storage, i64, ptr }
%struct.sockaddr_storage = type { i16, [118 x i8], i64 }

@slurm_conf = external global %struct.slurm_conf_t, align 8
@.str.9 = private unnamed_addr constant [32 x i8] c"%s: pthread_rwlock_wrlock(): %m\00", align 1
@nameinfo_cache = internal global ptr null, align 8
@.str.10 = private unnamed_addr constant [32 x i8] c"%s: pthread_rwlock_unlock(): %m\00", align 1
@.str.11 = private unnamed_addr constant [32 x i8] c"%s: pthread_rwlock_rdlock(): %m\00", align 1
@__func__.xgetnameinfo = private unnamed_addr constant [13 x i8] c"xgetnameinfo\00", align 1
@.str.12 = private unnamed_addr constant [27 x i8] c"NET: %s: %pA = %s (cached)\00", align 1
@.str.13 = private unnamed_addr constant [11 x i8] c"util-net.c\00", align 1
@.str.14 = private unnamed_addr constant [36 x i8] c"NET: %s: Adding to cache - %pA = %s\00", align 1
@.str.15 = private unnamed_addr constant [35 x i8] c"NET: %s: Updating cache - %pA = %s\00", align 1
@getnameinfo_cache_lock = internal global { { i32, i32, i32, i32, i32, i32, i32, i32, i8, [7 x i8], i64, i32, [4 x i8] } } zeroinitializer, align 8

; Function Attrs: nounwind uwtable
define dso_local ptr @xgetnameinfo(ptr noundef %0) #0 {
  %2 = alloca ptr, align 8
  %3 = alloca ptr, align 8
  %4 = alloca ptr, align 8
  %5 = alloca ptr, align 8
  %6 = alloca i64, align 8
  %7 = alloca i8, align 1
  %8 = alloca i32, align 4
  %9 = alloca i32, align 4
  %10 = alloca i32, align 4
  %11 = alloca i32, align 4
  %12 = alloca i32, align 4
  %13 = alloca i32, align 4
  store ptr %0, ptr %3, align 8
  call void @llvm.lifetime.start.p0(i64 8, ptr %4) #9
  store ptr null, ptr %4, align 8
  call void @llvm.lifetime.start.p0(i64 8, ptr %5) #9
  store ptr null, ptr %5, align 8
  call void @llvm.lifetime.start.p0(i64 8, ptr %6) #9
  store i64 0, ptr %6, align 8
  call void @llvm.lifetime.start.p0(i64 1, ptr %7) #9
  store i8 0, ptr %7, align 1
  %14 = load i16, ptr getelementptr inbounds nuw (%struct.slurm_conf_t, ptr @slurm_conf, i32 0, i32 55), align 2
  %15 = icmp ne i16 %14, 0
  br i1 %15, label %19, label %16

16:                                               ; preds = %1
  %17 = load ptr, ptr %3, align 8
  %18 = call ptr @_getnameinfo(ptr noundef %17)
  store ptr %18, ptr %2, align 8
  store i32 1, ptr %8, align 4
  br label %185

19:                                               ; preds = %1
  br label %20

20:                                               ; preds = %19
  call void @llvm.lifetime.start.p0(i64 4, ptr %9) #9
  %21 = call i32 @pthread_rwlock_rdlock(ptr noundef @getnameinfo_cache_lock) #9
  store i32 %21, ptr %9, align 4
  %22 = load i32, ptr %9, align 4
  %23 = icmp ne i32 %22, 0
  br i1 %23, label %24, label %27

24:                                               ; preds = %20
  %25 = load i32, ptr %9, align 4
  %26 = call ptr @__errno_location() #10
  store i32 %25, ptr %26, align 4
  call void (ptr, ...) @fatal_abort(ptr noundef @.str.11, ptr noundef @__func__.xgetnameinfo) #11
  unreachable

27:                                               ; preds = %20
  call void @llvm.lifetime.end.p0(i64 4, ptr %9) #9
  br label %28

28:                                               ; preds = %27
  br label %29

29:                                               ; preds = %28
  %30 = call i64 @time(ptr noundef null) #9
  store i64 %30, ptr %6, align 8
  %31 = load ptr, ptr @nameinfo_cache, align 8
  %32 = icmp ne ptr %31, null
  br i1 %32, label %33, label %79

33:                                               ; preds = %29
  %34 = load ptr, ptr @nameinfo_cache, align 8
  %35 = load ptr, ptr %3, align 8
  %36 = call ptr @list_find_first_ro(ptr noundef %34, ptr noundef @_name_cache_find, ptr noundef %35)
  store ptr %36, ptr %4, align 8
  %37 = load ptr, ptr %4, align 8
  %38 = icmp ne ptr %37, null
  br i1 %38, label %39, label %78

39:                                               ; preds = %33
  %40 = load ptr, ptr %4, align 8
  %41 = getelementptr inbounds nuw %struct.getnameinfo_cache_t, ptr %40, i32 0, i32 1
  %42 = load i64, ptr %41, align 8
  %43 = load i64, ptr %6, align 8
  %44 = icmp sgt i64 %42, %43
  br i1 %44, label %45, label %78

45:                                               ; preds = %39
  %46 = load ptr, ptr %4, align 8
  %47 = getelementptr inbounds nuw %struct.getnameinfo_cache_t, ptr %46, i32 0, i32 2
  %48 = load ptr, ptr %47, align 8
  %49 = call ptr @xstrdup(ptr noundef %48)
  store ptr %49, ptr %5, align 8
  br label %50

50:                                               ; preds = %45
  call void @llvm.lifetime.start.p0(i64 4, ptr %10) #9
  %51 = call i32 @pthread_rwlock_unlock(ptr noundef @getnameinfo_cache_lock) #9
  store i32 %51, ptr %10, align 4
  %52 = load i32, ptr %10, align 4
  %53 = icmp ne i32 %52, 0
  br i1 %53, label %54, label %57

54:                                               ; preds = %50
  %55 = load i32, ptr %10, align 4
  %56 = call ptr @__errno_location() #10
  store i32 %55, ptr %56, align 4
  call void (ptr, ...) @fatal_abort(ptr noundef @.str.10, ptr noundef @__func__.xgetnameinfo) #11
  unreachable

57:                                               ; preds = %50
  call void @llvm.lifetime.end.p0(i64 4, ptr %10) #9
  br label %58

58:                                               ; preds = %57
  br label %59

59:                                               ; preds = %58
  br label %60

60:                                               ; preds = %59
  %61 = load i64, ptr getelementptr inbounds nuw (%struct.slurm_conf_t, ptr @slurm_conf, i32 0, i32 42), align 8
  %62 = and i64 %61, 1024
  %63 = icmp ne i64 %62, 0
  br i1 %63, label %64, label %74

64:                                               ; preds = %60
  br label %65

65:                                               ; preds = %64
  %66 = call i32 @get_log_level()
  %67 = icmp sge i32 %66, 4
  br i1 %67, label %68, label %71

68:                                               ; preds = %65
  %69 = load ptr, ptr %3, align 8
  %70 = load ptr, ptr %5, align 8
  call void (i32, ptr, ...) @log_var(i32 noundef 4, ptr noundef @.str.12, ptr noundef @__func__.xgetnameinfo, ptr noundef %69, ptr noundef %70)
  br label %71

71:                                               ; preds = %68, %65
  br label %72

72:                                               ; preds = %71
  br label %73

73:                                               ; preds = %72
  br label %74

74:                                               ; preds = %73, %60
  br label %75

75:                                               ; preds = %74
  br label %76

76:                                               ; preds = %75
  %77 = load ptr, ptr %5, align 8
  store ptr %77, ptr %2, align 8
  store i32 1, ptr %8, align 4
  br label %185

78:                                               ; preds = %39, %33
  br label %79

79:                                               ; preds = %78, %29
  br label %80

80:                                               ; preds = %79
  call void @llvm.lifetime.start.p0(i64 4, ptr %11) #9
  %81 = call i32 @pthread_rwlock_unlock(ptr noundef @getnameinfo_cache_lock) #9
  store i32 %81, ptr %11, align 4
  %82 = load i32, ptr %11, align 4
  %83 = icmp ne i32 %82, 0
  br i1 %83, label %84, label %87

84:                                               ; preds = %80
  %85 = load i32, ptr %11, align 4
  %86 = call ptr @__errno_location() #10
  store i32 %85, ptr %86, align 4
  call void (ptr, ...) @fatal_abort(ptr noundef @.str.10, ptr noundef @__func__.xgetnameinfo) #11
  unreachable

87:                                               ; preds = %80
  call void @llvm.lifetime.end.p0(i64 4, ptr %11) #9
  br label %88

88:                                               ; preds = %87
  br label %89

89:                                               ; preds = %88
  %90 = load ptr, ptr %3, align 8
  %91 = call ptr @_getnameinfo(ptr noundef %90)
  store ptr %91, ptr %5, align 8
  %92 = icmp ne ptr %91, null
  br i1 %92, label %94, label %93

93:                                               ; preds = %89
  store ptr null, ptr %2, align 8
  store i32 1, ptr %8, align 4
  br label %185

94:                                               ; preds = %89
  br label %95

95:                                               ; preds = %94
  call void @llvm.lifetime.start.p0(i64 4, ptr %12) #9
  %96 = call i32 @pthread_rwlock_wrlock(ptr noundef @getnameinfo_cache_lock) #9
  store i32 %96, ptr %12, align 4
  %97 = load i32, ptr %12, align 4
  %98 = icmp ne i32 %97, 0
  br i1 %98, label %99, label %102

99:                                               ; preds = %95
  %100 = load i32, ptr %12, align 4
  %101 = call ptr @__errno_location() #10
  store i32 %100, ptr %101, align 4
  call void (ptr, ...) @fatal_abort(ptr noundef @.str.9, ptr noundef @__func__.xgetnameinfo) #11
  unreachable

102:                                              ; preds = %95
  call void @llvm.lifetime.end.p0(i64 4, ptr %12) #9
  br label %103

103:                                              ; preds = %102
  br label %104

104:                                              ; preds = %103
  %105 = load ptr, ptr @nameinfo_cache, align 8
  %106 = icmp ne ptr %105, null
  br i1 %106, label %109, label %107

107:                                              ; preds = %104
  %108 = call ptr @list_create(ptr noundef @_getnameinfo_cache_destroy)
  store ptr %108, ptr @nameinfo_cache, align 8
  br label %109

109:                                              ; preds = %107, %104
  %110 = load ptr, ptr @nameinfo_cache, align 8
  %111 = load ptr, ptr %3, align 8
  %112 = call ptr @list_find_first(ptr noundef %110, ptr noundef @_name_cache_find, ptr noundef %111)
  store ptr %112, ptr %4, align 8
  %113 = load ptr, ptr %4, align 8
  %114 = icmp ne ptr %113, null
  br i1 %114, label %120, label %115

115:                                              ; preds = %109
  %116 = call ptr @slurm_xcalloc(i64 noundef 1, i64 noundef 144, i1 noundef zeroext true, i1 noundef zeroext false, ptr noundef @.str.13, i32 noundef 459, ptr noundef @__func__.xgetnameinfo)
  store ptr %116, ptr %4, align 8
  %117 = load ptr, ptr %4, align 8
  %118 = getelementptr inbounds nuw %struct.getnameinfo_cache_t, ptr %117, i32 0, i32 0
  %119 = load ptr, ptr %3, align 8
  call void @llvm.memcpy.p0.p0.i64(ptr align 8 %118, ptr align 8 %119, i64 128, i1 false)
  store i8 1, ptr %7, align 1
  br label %120

120:                                              ; preds = %115, %109
  %121 = load ptr, ptr %4, align 8
  %122 = getelementptr inbounds nuw %struct.getnameinfo_cache_t, ptr %121, i32 0, i32 2
  call void @slurm_xfree(ptr noundef %122)
  %123 = load ptr, ptr %5, align 8
  %124 = call ptr @xstrdup(ptr noundef %123)
  %125 = load ptr, ptr %4, align 8
  %126 = getelementptr inbounds nuw %struct.getnameinfo_cache_t, ptr %125, i32 0, i32 2
  store ptr %124, ptr %126, align 8
  %127 = load i64, ptr %6, align 8
  %128 = load i16, ptr getelementptr inbounds nuw (%struct.slurm_conf_t, ptr @slurm_conf, i32 0, i32 55), align 2
  %129 = zext i16 %128 to i64
  %130 = add nsw i64 %127, %129
  %131 = load ptr, ptr %4, align 8
  %132 = getelementptr inbounds nuw %struct.getnameinfo_cache_t, ptr %131, i32 0, i32 1
  store i64 %130, ptr %132, align 8
  %133 = load i8, ptr %7, align 1, !range !14, !noundef !15
  %134 = trunc i8 %133 to i1
  br i1 %134, label %135, label %155

135:                                              ; preds = %120
  br label %136

136:                                              ; preds = %135
  %137 = load i64, ptr getelementptr inbounds nuw (%struct.slurm_conf_t, ptr @slurm_conf, i32 0, i32 42), align 8
  %138 = and i64 %137, 1024
  %139 = icmp ne i64 %138, 0
  br i1 %139, label %140, label %150

140:                                              ; preds = %136
  br label %141

141:                                              ; preds = %140
  %142 = call i32 @get_log_level()
  %143 = icmp sge i32 %142, 4
  br i1 %143, label %144, label %147

144:                                              ; preds = %141
  %145 = load ptr, ptr %3, align 8
  %146 = load ptr, ptr %5, align 8
  call void (i32, ptr, ...) @log_var(i32 noundef 4, ptr noundef @.str.14, ptr noundef @__func__.xgetnameinfo, ptr noundef %145, ptr noundef %146)
  br label %147

147:                                              ; preds = %144, %141
  br label %148

148:                                              ; preds = %147
  br label %149

149:                                              ; preds = %148
  br label %150

150:                                              ; preds = %149, %136
  br label %151

151:                                              ; preds = %150
  br label %152

152:                                              ; preds = %151
  %153 = load ptr, ptr @nameinfo_cache, align 8
  %154 = load ptr, ptr %4, align 8
  call void @list_append(ptr noundef %153, ptr noundef %154)
  br label %173

155:                                              ; preds = %120
  br label %156

156:                                              ; preds = %155
  %157 = load i64, ptr getelementptr inbounds nuw (%struct.slurm_conf_t, ptr @slurm_conf, i32 0, i32 42), align 8
  %158 = and i64 %157, 1024
  %159 = icmp ne i64 %158, 0
  br i1 %159, label %160, label %170

160:                                              ; preds = %156
  br label %161

161:                                              ; preds = %160
  %162 = call i32 @get_log_level()
  %163 = icmp sge i32 %162, 4
  br i1 %163, label %164, label %167

164:                                              ; preds = %161
  %165 = load ptr, ptr %3, align 8
  %166 = load ptr, ptr %5, align 8
  call void (i32, ptr, ...) @log_var(i32 noundef 4, ptr noundef @.str.15, ptr noundef @__func__.xgetnameinfo, ptr noundef %165, ptr noundef %166)
  br label %167

167:                                              ; preds = %164, %161
  br label %168

168:                                              ; preds = %167
  br label %169

169:                                              ; preds = %168
  br label %170

170:                                              ; preds = %169, %156
  br label %171

171:                                              ; preds = %170
  br label %172

172:                                              ; preds = %171
  br label %173

173:                                              ; preds = %172, %152
  br label %174

174:                                              ; preds = %173
  call void @llvm.lifetime.start.p0(i64 4, ptr %13) #9
  %175 = call i32 @pthread_rwlock_unlock(ptr noundef @getnameinfo_cache_lock) #9
  store i32 %175, ptr %13, align 4
  %176 = load i32, ptr %13, align 4
  %177 = icmp ne i32 %176, 0
  br i1 %177, label %178, label %181

178:                                              ; preds = %174
  %179 = load i32, ptr %13, align 4
  %180 = call ptr @__errno_location() #10
  store i32 %179, ptr %180, align 4
  call void (ptr, ...) @fatal_abort(ptr noundef @.str.10, ptr noundef @__func__.xgetnameinfo) #11
  unreachable

181:                                              ; preds = %174
  call void @llvm.lifetime.end.p0(i64 4, ptr %13) #9
  br label %182

182:                                              ; preds = %181
  br label %183

183:                                              ; preds = %182
  %184 = load ptr, ptr %5, align 8
  store ptr %184, ptr %2, align 8
  store i32 1, ptr %8, align 4
  br label %185

185:                                              ; preds = %183, %93, %76, %16
  call void @llvm.lifetime.end.p0(i64 1, ptr %7) #9
  call void @llvm.lifetime.end.p0(i64 8, ptr %6) #9
  call void @llvm.lifetime.end.p0(i64 8, ptr %5) #9
  call void @llvm.lifetime.end.p0(i64 8, ptr %4) #9
  %186 = load ptr, ptr %2, align 8
  ret ptr %186
}