; Function Attrs: nounwind uwtable
define dso_local ptr @xgetnameinfo(ptr noundef %0) local_unnamed_addr #0 {
  %2 = load i16, ptr getelementptr inbounds nuw (i8, ptr @slurm_conf, i64 398), align 2
  %.not = icmp eq i16 %2, 0
  br i1 %.not, label %3, label %5

3:                                                ; preds = %1
  %4 = tail call fastcc ptr @_getnameinfo(ptr noundef %0)
  br label %76

5:                                                ; preds = %1
  %6 = tail call i32 @pthread_rwlock_rdlock(ptr noundef nonnull @getnameinfo_cache_lock) #14
  %.not47 = icmp eq i32 %6, 0
  br i1 %.not47, label %9, label %7

7:                                                ; preds = %5
  %8 = tail call ptr @__errno_location() #15
  store i32 %6, ptr %8, align 4
  tail call void (ptr, ...) @fatal_abort(ptr noundef nonnull @.str.11, ptr noundef nonnull @__func__.xgetnameinfo) #16
  unreachable

9:                                                ; preds = %5
  %10 = tail call i64 @time(ptr noundef null) #14
  %11 = load ptr, ptr @nameinfo_cache, align 8
  %.not48 = icmp eq ptr %11, null
  br i1 %.not48, label %32, label %12

12:                                               ; preds = %9
  %13 = tail call ptr @list_find_first_ro(ptr noundef nonnull %11, ptr noundef nonnull @_name_cache_find, ptr noundef %0) #14
  %.not49 = icmp eq ptr %13, null
  br i1 %.not49, label %32, label %14

14:                                               ; preds = %12
  %15 = getelementptr inbounds nuw i8, ptr %13, i64 128
  %16 = load i64, ptr %15, align 8
  %17 = icmp sgt i64 %16, %10
  br i1 %17, label %18, label %32

18:                                               ; preds = %14
  %19 = getelementptr inbounds nuw i8, ptr %13, i64 136
  %20 = load ptr, ptr %19, align 8
  %21 = tail call ptr @xstrdup(ptr noundef %20) #14
  %22 = tail call i32 @pthread_rwlock_unlock(ptr noundef nonnull @getnameinfo_cache_lock) #14
  %.not58 = icmp eq i32 %22, 0
  br i1 %.not58, label %25, label %23

23:                                               ; preds = %18
  %24 = tail call ptr @__errno_location() #15
  store i32 %22, ptr %24, align 4
  tail call void (ptr, ...) @fatal_abort(ptr noundef nonnull @.str.10, ptr noundef nonnull @__func__.xgetnameinfo) #16
  unreachable

25:                                               ; preds = %18
  %26 = load i64, ptr getelementptr inbounds nuw (i8, ptr @slurm_conf, i64 320), align 8
  %27 = and i64 %26, 1024
  %.not59 = icmp eq i64 %27, 0
  br i1 %.not59, label %76, label %28

28:                                               ; preds = %25
  %29 = tail call i32 @get_log_level() #14
  %30 = icmp sgt i32 %29, 3
  br i1 %30, label %31, label %76

31:                                               ; preds = %28
  tail call void (i32, ptr, ...) @log_var(i32 noundef 4, ptr noundef nonnull @.str.12, ptr noundef nonnull @__func__.xgetnameinfo, ptr noundef %0, ptr noundef %21) #14
  br label %76

32:                                               ; preds = %9, %14, %12
  %33 = tail call i32 @pthread_rwlock_unlock(ptr noundef nonnull @getnameinfo_cache_lock) #14
  %.not50 = icmp eq i32 %33, 0
  br i1 %.not50, label %36, label %34

34:                                               ; preds = %32
  %35 = tail call ptr @__errno_location() #15
  store i32 %33, ptr %35, align 4
  tail call void (ptr, ...) @fatal_abort(ptr noundef nonnull @.str.10, ptr noundef nonnull @__func__.xgetnameinfo) #16
  unreachable

36:                                               ; preds = %32
  %37 = tail call fastcc ptr @_getnameinfo(ptr noundef %0)
  %.not51 = icmp eq ptr %37, null
  br i1 %.not51, label %76, label %38

38:                                               ; preds = %36
  %39 = tail call i32 @pthread_rwlock_wrlock(ptr noundef nonnull @getnameinfo_cache_lock) #14
  %.not52 = icmp eq i32 %39, 0
  br i1 %.not52, label %42, label %40

40:                                               ; preds = %38
  %41 = tail call ptr @__errno_location() #15
  store i32 %39, ptr %41, align 4
  tail call void (ptr, ...) @fatal_abort(ptr noundef nonnull @.str.9, ptr noundef nonnull @__func__.xgetnameinfo) #16
  unreachable

42:                                               ; preds = %38
  %43 = load ptr, ptr @nameinfo_cache, align 8
  %.not53 = icmp eq ptr %43, null
  br i1 %.not53, label %44, label %46

44:                                               ; preds = %42
  %45 = tail call ptr @list_create(ptr noundef nonnull @_getnameinfo_cache_destroy) #14
  store ptr %45, ptr @nameinfo_cache, align 8
  br label %46

46:                                               ; preds = %44, %42
  %47 = phi ptr [ %45, %44 ], [ %43, %42 ]
  %48 = tail call ptr @list_find_first(ptr noundef %47, ptr noundef nonnull @_name_cache_find, ptr noundef %0) #14
  %.not54 = icmp eq ptr %48, null
  br i1 %.not54, label %49, label %51

49:                                               ; preds = %46
  %50 = tail call ptr @slurm_xcalloc(i64 noundef 1, i64 noundef 144, i1 noundef zeroext true, i1 noundef zeroext false, ptr noundef nonnull @.str.13, i32 noundef 459, ptr noundef nonnull @__func__.xgetnameinfo) #14
  tail call void @llvm.memcpy.p0.p0.i64(ptr noundef nonnull align 8 dereferenceable(128) %50, ptr noundef nonnull align 8 dereferenceable(128) %0, i64 128, i1 false)
  br label %51

51:                                               ; preds = %49, %46
  %.036 = phi ptr [ %48, %46 ], [ %50, %49 ]
  %52 = getelementptr inbounds nuw i8, ptr %.036, i64 136
  tail call void @slurm_xfree(ptr noundef nonnull %52) #14
  %53 = tail call ptr @xstrdup(ptr noundef nonnull %37) #14
  store ptr %53, ptr %52, align 8
  %54 = load i16, ptr getelementptr inbounds nuw (i8, ptr @slurm_conf, i64 398), align 2
  %55 = zext i16 %54 to i64
  %56 = add nsw i64 %10, %55
  %57 = getelementptr inbounds nuw i8, ptr %.036, i64 128
  store i64 %56, ptr %57, align 8
  %58 = load i64, ptr getelementptr inbounds nuw (i8, ptr @slurm_conf, i64 320), align 8
  %59 = and i64 %58, 1024
  %.not56 = icmp eq i64 %59, 0
  br i1 %.not54, label %60, label %67

60:                                               ; preds = %51
  br i1 %.not56, label %65, label %61

61:                                               ; preds = %60
  %62 = tail call i32 @get_log_level() #14
  %63 = icmp sgt i32 %62, 3
  br i1 %63, label %64, label %65

64:                                               ; preds = %61
  tail call void (i32, ptr, ...) @log_var(i32 noundef 4, ptr noundef nonnull @.str.14, ptr noundef nonnull @__func__.xgetnameinfo, ptr noundef %0, ptr noundef nonnull %37) #14
  br label %65

65:                                               ; preds = %61, %64, %60
  %66 = load ptr, ptr @nameinfo_cache, align 8
  tail call void @list_append(ptr noundef %66, ptr noundef nonnull %.036) #14
  br label %72

67:                                               ; preds = %51
  br i1 %.not56, label %72, label %68

68:                                               ; preds = %67
  %69 = tail call i32 @get_log_level() #14
  %70 = icmp sgt i32 %69, 3
  br i1 %70, label %71, label %72

71:                                               ; preds = %68
  tail call void (i32, ptr, ...) @log_var(i32 noundef 4, ptr noundef nonnull @.str.15, ptr noundef nonnull @__func__.xgetnameinfo, ptr noundef %0, ptr noundef nonnull %37) #14
  br label %72

72:                                               ; preds = %65, %68, %71, %67
  %73 = tail call i32 @pthread_rwlock_unlock(ptr noundef nonnull @getnameinfo_cache_lock) #14
  %.not57 = icmp eq i32 %73, 0
  br i1 %.not57, label %76, label %74

74:                                               ; preds = %72
  %75 = tail call ptr @__errno_location() #15
  store i32 %73, ptr %75, align 4
  tail call void (ptr, ...) @fatal_abort(ptr noundef nonnull @.str.10, ptr noundef nonnull @__func__.xgetnameinfo) #16
  unreachable

76:                                               ; preds = %72, %36, %25, %31, %28, %3
  %.0 = phi ptr [ %4, %3 ], [ %21, %28 ], [ %21, %31 ], [ %21, %25 ], [ null, %36 ], [ %37, %72 ]
  ret ptr %.0
}